target datalayout = "e-m:e-p270:32:32-p271:32:32-p272:64:64-i64:64-i128:128-f80:128-n8:16:32:64-S128"
target triple = "x86_64-pc-linux-gnu"

%class.State = type { [315 x i32], [315 x i16], i32, ptr, [2 x ptr] }

@_ZN19Abstract_VM_Version9_featuresE = external global i64, align 8

; Function Attrs: mustprogress nounwind uwtable
define linkonce_odr hidden noundef zeroext i1 @_ZN10VM_Version13supports_gfniEv() #1 comdat align 2 {
  %1 = load i64, ptr @_ZN19Abstract_VM_Version9_featuresE, align 8
  %2 = and i64 %1, 2251799813685248
  %3 = icmp ne i64 %2, 0
  ret i1 %3
}

; Function Attrs: mustprogress nounwind uwtable
define hidden void @_ZN5State16_sub_Op_ReverseIEPK4Node(ptr noundef nonnull align 8 dereferenceable(1920) %0, ptr noundef %1) #1 align 2 {
  %3 = alloca ptr, align 8
  %4 = alloca ptr, align 8
  %5 = alloca i32, align 4
  %6 = alloca i32, align 4
  store ptr %0, ptr %3, align 8
  store ptr %1, ptr %4, align 8
  %7 = load ptr, ptr %3, align 8
  %8 = getelementptr inbounds %class.State, ptr %7, i32 0, i32 4
  %9 = getelementptr inbounds [2 x ptr], ptr %8, i64 0, i64 0
  %10 = load ptr, ptr %9, align 8
  %11 = icmp ne ptr %10, null
  br i1 %11, label %12, label %78

12:                                               ; preds = %2
  %13 = getelementptr inbounds %class.State, ptr %7, i32 0, i32 4
  %14 = getelementptr inbounds [2 x ptr], ptr %13, i64 0, i64 0
  %15 = load ptr, ptr %14, align 8
  %16 = getelementptr inbounds %class.State, ptr %15, i32 0, i32 1
  %17 = getelementptr inbounds [315 x i16], ptr %16, i64 0, i64 49
  %18 = load i16, ptr %17, align 2
  %19 = zext i16 %18 to i32
  %20 = and i32 %19, 1
  %21 = icmp ne i32 %20, 0
  br i1 %21, label %22, label %78

22:                                               ; preds = %12
  %23 = call noundef zeroext i1 @_ZN10VM_Version13supports_gfniEv()
  br i1 %23, label %24, label %78

24:                                               ; preds = %22
  %25 = getelementptr inbounds %class.State, ptr %7, i32 0, i32 4
  %26 = getelementptr inbounds [2 x ptr], ptr %25, i64 0, i64 0
  %27 = load ptr, ptr %26, align 8
  %28 = getelementptr inbounds %class.State, ptr %27, i32 0, i32 0
  %29 = getelementptr inbounds [315 x i32], ptr %28, i64 0, i64 49
  %30 = load i32, ptr %29, align 4
  %31 = add i32 %30, 100
  store i32 %31, ptr %5, align 4
  %32 = load i32, ptr %5, align 4
  %33 = getelementptr inbounds %class.State, ptr %7, i32 0, i32 0
  %34 = getelementptr inbounds [315 x i32], ptr %33, i64 0, i64 49
  store i32 %32, ptr %34, align 4
  %35 = getelementptr inbounds %class.State, ptr %7, i32 0, i32 1
  %36 = getelementptr inbounds [315 x i16], ptr %35, i64 0, i64 49
  store i16 1281, ptr %36, align 2
  %37 = load i32, ptr %5, align 4
  %38 = add i32 %37, 100
  %39 = getelementptr inbounds %class.State, ptr %7, i32 0, i32 0
  %40 = getelementptr inbounds [315 x i32], ptr %39, i64 0, i64 105
  store i32 %38, ptr %40, align 4
  %41 = getelementptr inbounds %class.State, ptr %7, i32 0, i32 1
  %42 = getelementptr inbounds [315 x i16], ptr %41, i64 0, i64 105
  store i16 631, ptr %42, align 2
  %43 = load i32, ptr %5, align 4
  %44 = getelementptr inbounds %class.State, ptr %7, i32 0, i32 0
  %45 = getelementptr inbounds [315 x i32], ptr %44, i64 0, i64 50
  store i32 %43, ptr %45, align 8
  %46 = getelementptr inbounds %class.State, ptr %7, i32 0, i32 1
  %47 = getelementptr inbounds [315 x i16], ptr %46, i64 0, i64 50
  store i16 1281, ptr %47, align 4
  %48 = load i32, ptr %5, align 4
  %49 = getelementptr inbounds %class.State, ptr %7, i32 0, i32 0
  %50 = getelementptr inbounds [315 x i32], ptr %49, i64 0, i64 56
  store i32 %48, ptr %50, align 8
  %51 = getelementptr inbounds %class.State, ptr %7, i32 0, i32 1
  %52 = getelementptr inbounds [315 x i16], ptr %51, i64 0, i64 56
  store i16 1281, ptr %52, align 4
  %53 = load i32, ptr %5, align 4
  %54 = getelementptr inbounds %class.State, ptr %7, i32 0, i32 0
  %55 = getelementptr inbounds [315 x i32], ptr %54, i64 0, i64 51
  store i32 %53, ptr %55, align 4
  %56 = getelementptr inbounds %class.State, ptr %7, i32 0, i32 1
  %57 = getelementptr inbounds [315 x i16], ptr %56, i64 0, i64 51
  store i16 1281, ptr %57, align 2
  %58 = load i32, ptr %5, align 4
  %59 = getelementptr inbounds %class.State, ptr %7, i32 0, i32 0
  %60 = getelementptr inbounds [315 x i32], ptr %59, i64 0, i64 55
  store i32 %58, ptr %60, align 4
  %61 = getelementptr inbounds %class.State, ptr %7, i32 0, i32 1
  %62 = getelementptr inbounds [315 x i16], ptr %61, i64 0, i64 55
  store i16 1281, ptr %62, align 2
  %63 = load i32, ptr %5, align 4
  %64 = getelementptr inbounds %class.State, ptr %7, i32 0, i32 0
  %65 = getelementptr inbounds [315 x i32], ptr %64, i64 0, i64 52
  store i32 %63, ptr %65, align 8
  %66 = getelementptr inbounds %class.State, ptr %7, i32 0, i32 1
  %67 = getelementptr inbounds [315 x i16], ptr %66, i64 0, i64 52
  store i16 1281, ptr %67, align 4
  %68 = load i32, ptr %5, align 4
  %69 = getelementptr inbounds %class.State, ptr %7, i32 0, i32 0
  %70 = getelementptr inbounds [315 x i32], ptr %69, i64 0, i64 53
  store i32 %68, ptr %70, align 4
  %71 = getelementptr inbounds %class.State, ptr %7, i32 0, i32 1
  %72 = getelementptr inbounds [315 x i16], ptr %71, i64 0, i64 53
  store i16 1281, ptr %72, align 2
  %73 = load i32, ptr %5, align 4
  %74 = getelementptr inbounds %class.State, ptr %7, i32 0, i32 0
  %75 = getelementptr inbounds [315 x i32], ptr %74, i64 0, i64 54
  store i32 %73, ptr %75, align 8
  %76 = getelementptr inbounds %class.State, ptr %7, i32 0, i32 1
  %77 = getelementptr inbounds [315 x i16], ptr %76, i64 0, i64 54
  store i16 1281, ptr %77, align 4
  br label %78

78:                                               ; preds = %24, %22, %12, %2
  %79 = getelementptr inbounds %class.State, ptr %7, i32 0, i32 4
  %80 = getelementptr inbounds [2 x ptr], ptr %79, i64 0, i64 0
  %81 = load ptr, ptr %80, align 8
  %82 = icmp ne ptr %81, null
  br i1 %82, label %83, label %276

83:                                               ; preds = %78
  %84 = getelementptr inbounds %class.State, ptr %7, i32 0, i32 4
  %85 = getelementptr inbounds [2 x ptr], ptr %84, i64 0, i64 0
  %86 = load ptr, ptr %85, align 8
  %87 = getelementptr inbounds %class.State, ptr %86, i32 0, i32 1
  %88 = getelementptr inbounds [315 x i16], ptr %87, i64 0, i64 49
  %89 = load i16, ptr %88, align 2
  %90 = zext i16 %89 to i32
  %91 = and i32 %90, 1
  %92 = icmp ne i32 %91, 0
  br i1 %92, label %93, label %276

93:                                               ; preds = %83
  %94 = call noundef zeroext i1 @_ZN10VM_Version13supports_gfniEv()
  br i1 %94, label %276, label %95

95:                                               ; preds = %93
  %96 = getelementptr inbounds %class.State, ptr %7, i32 0, i32 4
  %97 = getelementptr inbounds [2 x ptr], ptr %96, i64 0, i64 0
  %98 = load ptr, ptr %97, align 8
  %99 = getelementptr inbounds %class.State, ptr %98, i32 0, i32 0
  %100 = getelementptr inbounds [315 x i32], ptr %99, i64 0, i64 49
  %101 = load i32, ptr %100, align 4
  %102 = add i32 %101, 100
  store i32 %102, ptr %6, align 4
  %103 = getelementptr inbounds %class.State, ptr %7, i32 0, i32 1
  %104 = getelementptr inbounds [315 x i16], ptr %103, i64 0, i64 49
  %105 = load i16, ptr %104, align 2
  %106 = zext i16 %105 to i32
  %107 = and i32 %106, 1
  %108 = icmp eq i32 %107, 0
  br i1 %108, label %115, label %109

109:                                              ; preds = %95
  %110 = getelementptr inbounds %class.State, ptr %7, i32 0, i32 0
  %111 = getelementptr inbounds [315 x i32], ptr %110, i64 0, i64 49
  %112 = load i32, ptr %111, align 4
  %113 = load i32, ptr %6, align 4
  %114 = icmp ugt i32 %112, %113
  br i1 %114, label %115, label %121

115:                                              ; preds = %109, %95
  %116 = load i32, ptr %6, align 4
  %117 = getelementptr inbounds %class.State, ptr %7, i32 0, i32 0
  %118 = getelementptr inbounds [315 x i32], ptr %117, i64 0, i64 49
  store i32 %116, ptr %118, align 4
  %119 = getelementptr inbounds %class.State, ptr %7, i32 0, i32 1
  %120 = getelementptr inbounds [315 x i16], ptr %119, i64 0, i64 49
  store i16 1279, ptr %120, align 2
  br label %121

121:                                              ; preds = %115, %109
  %122 = getelementptr inbounds %class.State, ptr %7, i32 0, i32 1
  %123 = getelementptr inbounds [315 x i16], ptr %122, i64 0, i64 105
  %124 = load i16, ptr %123, align 2
  %125 = zext i16 %124 to i32
  %126 = and i32 %125, 1
  %127 = icmp eq i32 %126, 0
  br i1 %127, label %135, label %128

128:                                              ; preds = %121
  %129 = getelementptr inbounds %class.State, ptr %7, i32 0, i32 0
  %130 = getelementptr inbounds [315 x i32], ptr %129, i64 0, i64 105
  %131 = load i32, ptr %130, align 4
  %132 = load i32, ptr %6, align 4
  %133 = add i32 %132, 100
  %134 = icmp ugt i32 %131, %133
  br i1 %134, label %135, label %142

135:                                              ; preds = %128, %121
  %136 = load i32, ptr %6, align 4
  %137 = add i32 %136, 100
  %138 = getelementptr inbounds %class.State, ptr %7, i32 0, i32 0
  %139 = getelementptr inbounds [315 x i32], ptr %138, i64 0, i64 105
  store i32 %137, ptr %139, align 4
  %140 = getelementptr inbounds %class.State, ptr %7, i32 0, i32 1
  %141 = getelementptr inbounds [315 x i16], ptr %140, i64 0, i64 105
  store i16 631, ptr %141, align 2
  br label %142

142:                                              ; preds = %135, %128
  %143 = getelementptr inbounds %class.State, ptr %7, i32 0, i32 1
  %144 = getelementptr inbounds [315 x i16], ptr %143, i64 0, i64 50
  %145 = load i16, ptr %144, align 4
  %146 = zext i16 %145 to i32
  %147 = and i32 %146, 1
  %148 = icmp eq i32 %147, 0
  br i1 %148, label %155, label %149

149:                                              ; preds = %142
  %150 = getelementptr inbounds %class.State, ptr %7, i32 0, i32 0
  %151 = getelementptr inbounds [315 x i32], ptr %150, i64 0, i64 50
  %152 = load i32, ptr %151, align 8
  %153 = load i32, ptr %6, align 4
  %154 = icmp ugt i32 %152, %153
  br i1 %154, label %155, label %161

155:                                              ; preds = %149, %142
  %156 = load i32, ptr %6, align 4
  %157 = getelementptr inbounds %class.State, ptr %7, i32 0, i32 0
  %158 = getelementptr inbounds [315 x i32], ptr %157, i64 0, i64 50
  store i32 %156, ptr %158, align 8
  %159 = getelementptr inbounds %class.State, ptr %7, i32 0, i32 1
  %160 = getelementptr inbounds [315 x i16], ptr %159, i64 0, i64 50
  store i16 1279, ptr %160, align 4
  br label %161

161:                                              ; preds = %155, %149
  %162 = getelementptr inbounds %class.State, ptr %7, i32 0, i32 1
  %163 = getelementptr inbounds [315 x i16], ptr %162, i64 0, i64 56
  %164 = load i16, ptr %163, align 4
  %165 = zext i16 %164 to i32
  %166 = and i32 %165, 1
  %167 = icmp eq i32 %166, 0
  br i1 %167, label %174, label %168

168:                                              ; preds = %161
  %169 = getelementptr inbounds %class.State, ptr %7, i32 0, i32 0
  %170 = getelementptr inbounds [315 x i32], ptr %169, i64 0, i64 56
  %171 = load i32, ptr %170, align 8
  %172 = load i32, ptr %6, align 4
  %173 = icmp ugt i32 %171, %172
  br i1 %173, label %174, label %180

174:                                              ; preds = %168, %161
  %175 = load i32, ptr %6, align 4
  %176 = getelementptr inbounds %class.State, ptr %7, i32 0, i32 0
  %177 = getelementptr inbounds [315 x i32], ptr %176, i64 0, i64 56
  store i32 %175, ptr %177, align 8
  %178 = getelementptr inbounds %class.State, ptr %7, i32 0, i32 1
  %179 = getelementptr inbounds [315 x i16], ptr %178, i64 0, i64 56
  store i16 1279, ptr %179, align 4
  br label %180

180:                                              ; preds = %174, %168
  %181 = getelementptr inbounds %class.State, ptr %7, i32 0, i32 1
  %182 = getelementptr inbounds [315 x i16], ptr %181, i64 0, i64 51
  %183 = load i16, ptr %182, align 2
  %184 = zext i16 %183 to i32
  %185 = and i32 %184, 1
  %186 = icmp eq i32 %185, 0
  br i1 %186, label %193, label %187

187:                                              ; preds = %180
  %188 = getelementptr inbounds %class.State, ptr %7, i32 0, i32 0
  %189 = getelementptr inbounds [315 x i32], ptr %188, i64 0, i64 51
  %190 = load i32, ptr %189, align 4
  %191 = load i32, ptr %6, align 4
  %192 = icmp ugt i32 %190, %191
  br i1 %192, label %193, label %199

193:                                              ; preds = %187, %180
  %194 = load i32, ptr %6, align 4
  %195 = getelementptr inbounds %class.State, ptr %7, i32 0, i32 0
  %196 = getelementptr inbounds [315 x i32], ptr %195, i64 0, i64 51
  store i32 %194, ptr %196, align 4
  %197 = getelementptr inbounds %class.State, ptr %7, i32 0, i32 1
  %198 = getelementptr inbounds [315 x i16], ptr %197, i64 0, i64 51
  store i16 1279, ptr %198, align 2
  br label %199

199:                                              ; preds = %193, %187
  %200 = getelementptr inbounds %class.State, ptr %7, i32 0, i32 1
  %201 = getelementptr inbounds [315 x i16], ptr %200, i64 0, i64 55
  %202 = load i16, ptr %201, align 2
  %203 = zext i16 %202 to i32
  %204 = and i32 %203, 1
  %205 = icmp eq i32 %204, 0
  br i1 %205, label %212, label %206

206:                                              ; preds = %199
  %207 = getelementptr inbounds %class.State, ptr %7, i32 0, i32 0
  %208 = getelementptr inbounds [315 x i32], ptr %207, i64 0, i64 55
  %209 = load i32, ptr %208, align 4
  %210 = load i32, ptr %6, align 4
  %211 = icmp ugt i32 %209, %210
  br i1 %211, label %212, label %218

212:                                              ; preds = %206, %199
  %213 = load i32, ptr %6, align 4
  %214 = getelementptr inbounds %class.State, ptr %7, i32 0, i32 0
  %215 = getelementptr inbounds [315 x i32], ptr %214, i64 0, i64 55
  store i32 %213, ptr %215, align 4
  %216 = getelementptr inbounds %class.State, ptr %7, i32 0, i32 1
  %217 = getelementptr inbounds [315 x i16], ptr %216, i64 0, i64 55
  store i16 1279, ptr %217, align 2
  br label %218

218:                                              ; preds = %212, %206
  %219 = getelementptr inbounds %class.State, ptr %7, i32 0, i32 1
  %220 = getelementptr inbounds [315 x i16], ptr %219, i64 0, i64 52
  %221 = load i16, ptr %220, align 4
  %222 = zext i16 %221 to i32
  %223 = and i32 %222, 1
  %224 = icmp eq i32 %223, 0
  br i1 %224, label %231, label %225

225:                                              ; preds = %218
  %226 = getelementptr inbounds %class.State, ptr %7, i32 0, i32 0
  %227 = getelementptr inbounds [315 x i32], ptr %226, i64 0, i64 52
  %228 = load i32, ptr %227, align 8
  %229 = load i32, ptr %6, align 4
  %230 = icmp ugt i32 %228, %229
  br i1 %230, label %231, label %237

231:                                              ; preds = %225, %218
  %232 = load i32, ptr %6, align 4
  %233 = getelementptr inbounds %class.State, ptr %7, i32 0, i32 0
  %234 = getelementptr inbounds [315 x i32], ptr %233, i64 0, i64 52
  store i32 %232, ptr %234, align 8
  %235 = getelementptr inbounds %class.State, ptr %7, i32 0, i32 1
  %236 = getelementptr inbounds [315 x i16], ptr %235, i64 0, i64 52
  store i16 1279, ptr %236, align 4
  br label %237

237:                                              ; preds = %231, %225
  %238 = getelementptr inbounds %class.State, ptr %7, i32 0, i32 1
  %239 = getelementptr inbounds [315 x i16], ptr %238, i64 0, i64 53
  %240 = load i16, ptr %239, align 2
  %241 = zext i16 %240 to i32
  %242 = and i32 %241, 1
  %243 = icmp eq i32 %242, 0
  br i1 %243, label %250, label %244

244:                                              ; preds = %237
  %245 = getelementptr inbounds %class.State, ptr %7, i32 0, i32 0
  %246 = getelementptr inbounds [315 x i32], ptr %245, i64 0, i64 53
  %247 = load i32, ptr %246, align 4
  %248 = load i32, ptr %6, align 4
  %249 = icmp ugt i32 %247, %248
  br i1 %249, label %250, label %256

250:                                              ; preds = %244, %237
  %251 = load i32, ptr %6, align 4
  %252 = getelementptr inbounds %class.State, ptr %7, i32 0, i32 0
  %253 = getelementptr inbounds [315 x i32], ptr %252, i64 0, i64 53
  store i32 %251, ptr %253, align 4
  %254 = getelementptr inbounds %class.State, ptr %7, i32 0, i32 1
  %255 = getelementptr inbounds [315 x i16], ptr %254, i64 0, i64 53
  store i16 1279, ptr %255, align 2
  br label %256

256:                                              ; preds = %250, %244
  %257 = getelementptr inbounds %class.State, ptr %7, i32 0, i32 1
  %258 = getelementptr inbounds [315 x i16], ptr %257, i64 0, i64 54
  %259 = load i16, ptr %258, align 4
  %260 = zext i16 %259 to i32
  %261 = and i32 %260, 1
  %262 = icmp eq i32 %261, 0
  br i1 %262, label %269, label %263

263:                                              ; preds = %256
  %264 = getelementptr inbounds %class.State, ptr %7, i32 0, i32 0
  %265 = getelementptr inbounds [315 x i32], ptr %264, i64 0, i64 54
  %266 = load i32, ptr %265, align 8
  %267 = load i32, ptr %6, align 4
  %268 = icmp ugt i32 %266, %267
  br i1 %268, label %269, label %275

269:                                              ; preds = %263, %256
  %270 = load i32, ptr %6, align 4
  %271 = getelementptr inbounds %class.State, ptr %7, i32 0, i32 0
  %272 = getelementptr inbounds [315 x i32], ptr %271, i64 0, i64 54
  store i32 %270, ptr %272, align 8
  %273 = getelementptr inbounds %class.State, ptr %7, i32 0, i32 1
  %274 = getelementptr inbounds [315 x i16], ptr %273, i64 0, i64 54
  store i16 1279, ptr %274, align 4
  br label %275

275:                                              ; preds = %269, %263
  br label %276

276:                                              ; preds = %275, %93, %83, %78
  ret void
}