; Function Attrs: mustprogress nofree norecurse nosync nounwind willreturn memory(read, argmem: readwrite, inaccessiblemem: none) uwtable
define hidden void @_ZN5State16_sub_Op_ReverseIEPK4Node(ptr nocapture noundef nonnull align 8 dereferenceable(1920) %0, ptr nocapture readnone %1) local_unnamed_addr #1 align 2 {
  %3 = getelementptr inbounds i8, ptr %0, i64 1904
  %4 = load ptr, ptr %3, align 8
  %.not = icmp eq ptr %4, null
  br i1 %.not, label %.thread, label %5

5:                                                ; preds = %2
  %6 = getelementptr inbounds i8, ptr %4, i64 1358
  %7 = load i16, ptr %6, align 2
  %8 = and i16 %7, 1
  %.not28 = icmp eq i16 %8, 0
  br i1 %.not28, label %.thread, label %9

9:                                                ; preds = %5
  %10 = load i64, ptr @_ZN19Abstract_VM_Version9_featuresE, align 8
  %11 = and i64 %10, 2251799813685248
  %.not54 = icmp eq i64 %11, 0
  br i1 %.not54, label %.thread60, label %12

12:                                               ; preds = %9
  %13 = getelementptr inbounds i8, ptr %4, i64 196
  %14 = load i32, ptr %13, align 4
  %15 = add i32 %14, 100
  %16 = getelementptr inbounds i8, ptr %0, i64 196
  %17 = getelementptr inbounds i8, ptr %0, i64 1358
  %18 = add i32 %14, 200
  %19 = getelementptr inbounds i8, ptr %0, i64 420
  store i32 %18, ptr %19, align 4
  %20 = getelementptr inbounds i8, ptr %0, i64 1470
  store i16 631, ptr %20, align 2
  %21 = insertelement <4 x i32> poison, i32 %15, i64 0
  %22 = shufflevector <4 x i32> %21, <4 x i32> poison, <4 x i32> zeroinitializer
  store <4 x i32> %22, ptr %16, align 4
  %23 = getelementptr inbounds i8, ptr %0, i64 212
  store <4 x i32> %22, ptr %23, align 4
  store <8 x i16> <i16 1281, i16 1281, i16 1281, i16 1281, i16 1281, i16 1281, i16 1281, i16 1281>, ptr %17, align 2
  %.pre = load i16, ptr %6, align 2
  %.pre56 = and i16 %.pre, 1
  %24 = icmp eq i16 %.pre56, 0
  br i1 %24, label %.thread, label %.thread60

.thread60:                                        ; preds = %9, %12
  %25 = load i64, ptr @_ZN19Abstract_VM_Version9_featuresE, align 8
  %26 = and i64 %25, 2251799813685248
  %.not55 = icmp eq i64 %26, 0
  br i1 %.not55, label %27, label %.thread

27:                                               ; preds = %.thread60
  %28 = getelementptr inbounds i8, ptr %4, i64 196
  %29 = load i32, ptr %28, align 4
  %30 = add i32 %29, 100
  %31 = getelementptr inbounds i8, ptr %0, i64 1358
  %32 = load i16, ptr %31, align 2
  %33 = and i16 %32, 1
  %34 = icmp eq i16 %33, 0
  %35 = getelementptr inbounds i8, ptr %0, i64 196
  %36 = load i32, ptr %35, align 4
  %37 = icmp ugt i32 %36, %30
  %or.cond = select i1 %34, i1 true, i1 %37
  br i1 %or.cond, label %38, label %39

38:                                               ; preds = %27
  store i32 %30, ptr %35, align 4
  store i16 1279, ptr %31, align 2
  br label %39

39:                                               ; preds = %27, %38
  %40 = getelementptr inbounds i8, ptr %0, i64 1470
  %41 = load i16, ptr %40, align 2
  %42 = and i16 %41, 1
  %43 = icmp eq i16 %42, 0
  br i1 %43, label %._crit_edge, label %44

._crit_edge:                                      ; preds = %39
  %.pre57 = add i32 %29, 200
  br label %49

44:                                               ; preds = %39
  %45 = getelementptr inbounds i8, ptr %0, i64 420
  %46 = load i32, ptr %45, align 4
  %47 = add i32 %29, 200
  %48 = icmp ugt i32 %46, %47
  br i1 %48, label %49, label %51

49:                                               ; preds = %._crit_edge, %44
  %.pre-phi58 = phi i32 [ %.pre57, %._crit_edge ], [ %47, %44 ]
  %50 = getelementptr inbounds i8, ptr %0, i64 420
  store i32 %.pre-phi58, ptr %50, align 4
  store i16 631, ptr %40, align 2
  br label %51

51:                                               ; preds = %49, %44
  %52 = getelementptr inbounds i8, ptr %0, i64 1360
  %53 = load i16, ptr %52, align 8
  %54 = and i16 %53, 1
  %55 = icmp eq i16 %54, 0
  %56 = getelementptr inbounds i8, ptr %0, i64 200
  %57 = load i32, ptr %56, align 8
  %58 = icmp ugt i32 %57, %30
  %or.cond35 = select i1 %55, i1 true, i1 %58
  br i1 %or.cond35, label %59, label %60

59:                                               ; preds = %51
  store i32 %30, ptr %56, align 8
  store i16 1279, ptr %52, align 8
  br label %60

60:                                               ; preds = %51, %59
  %61 = getelementptr inbounds i8, ptr %0, i64 1372
  %62 = load i16, ptr %61, align 4
  %63 = and i16 %62, 1
  %64 = icmp eq i16 %63, 0
  %65 = getelementptr inbounds i8, ptr %0, i64 224
  %66 = load i32, ptr %65, align 8
  %67 = icmp ugt i32 %66, %30
  %or.cond38 = select i1 %64, i1 true, i1 %67
  br i1 %or.cond38, label %68, label %69

68:                                               ; preds = %60
  store i32 %30, ptr %65, align 8
  store i16 1279, ptr %61, align 4
  br label %69

69:                                               ; preds = %60, %68
  %70 = getelementptr inbounds i8, ptr %0, i64 1362
  %71 = load i16, ptr %70, align 2
  %72 = and i16 %71, 1
  %73 = icmp eq i16 %72, 0
  %74 = getelementptr inbounds i8, ptr %0, i64 204
  %75 = load i32, ptr %74, align 4
  %76 = icmp ugt i32 %75, %30
  %or.cond41 = select i1 %73, i1 true, i1 %76
  br i1 %or.cond41, label %77, label %78

77:                                               ; preds = %69
  store i32 %30, ptr %74, align 4
  store i16 1279, ptr %70, align 2
  br label %78

78:                                               ; preds = %69, %77
  %79 = getelementptr inbounds i8, ptr %0, i64 1370
  %80 = load i16, ptr %79, align 2
  %81 = and i16 %80, 1
  %82 = icmp eq i16 %81, 0
  %83 = getelementptr inbounds i8, ptr %0, i64 220
  %84 = load i32, ptr %83, align 4
  %85 = icmp ugt i32 %84, %30
  %or.cond44 = select i1 %82, i1 true, i1 %85
  br i1 %or.cond44, label %86, label %87

86:                                               ; preds = %78
  store i32 %30, ptr %83, align 4
  store i16 1279, ptr %79, align 2
  br label %87

87:                                               ; preds = %78, %86
  %88 = getelementptr inbounds i8, ptr %0, i64 1364
  %89 = load i16, ptr %88, align 4
  %90 = and i16 %89, 1
  %91 = icmp eq i16 %90, 0
  %92 = getelementptr inbounds i8, ptr %0, i64 208
  %93 = load i32, ptr %92, align 8
  %94 = icmp ugt i32 %93, %30
  %or.cond47 = select i1 %91, i1 true, i1 %94
  br i1 %or.cond47, label %95, label %96

95:                                               ; preds = %87
  store i32 %30, ptr %92, align 8
  store i16 1279, ptr %88, align 4
  br label %96

96:                                               ; preds = %87, %95
  %97 = getelementptr inbounds i8, ptr %0, i64 1366
  %98 = load i16, ptr %97, align 2
  %99 = and i16 %98, 1
  %100 = icmp eq i16 %99, 0
  %101 = getelementptr inbounds i8, ptr %0, i64 212
  %102 = load i32, ptr %101, align 4
  %103 = icmp ugt i32 %102, %30
  %or.cond50 = select i1 %100, i1 true, i1 %103
  br i1 %or.cond50, label %104, label %105

104:                                              ; preds = %96
  store i32 %30, ptr %101, align 4
  store i16 1279, ptr %97, align 2
  br label %105

105:                                              ; preds = %96, %104
  %106 = getelementptr inbounds i8, ptr %0, i64 1368
  %107 = load i16, ptr %106, align 8
  %108 = and i16 %107, 1
  %109 = icmp eq i16 %108, 0
  %110 = getelementptr inbounds i8, ptr %0, i64 216
  %111 = load i32, ptr %110, align 8
  %112 = icmp ugt i32 %111, %30
  %or.cond53 = select i1 %109, i1 true, i1 %112
  br i1 %or.cond53, label %113, label %.thread

113:                                              ; preds = %105
  store i32 %30, ptr %110, align 8
  store i16 1279, ptr %106, align 8
  br label %.thread

.thread:                                          ; preds = %5, %2, %105, %113, %.thread60, %12
  ret void
}